; Function Attrs: mustprogress uwtable
define void @_ZN26MLRenderingWireWidthActionC2EiP7QObject(ptr noundef nonnull align 8 dereferenceable(20) %0, i32 noundef %1, ptr noundef %2) unnamed_addr #9 align 2 personality ptr @__gxx_personality_v0 {
  %4 = alloca %class.QString, align 8
  tail call void @_ZN17MLRenderingActionC2EiP7QObject(ptr noundef nonnull align 8 dereferenceable(16) %0, i32 noundef %1, ptr noundef %2)
  store ptr getelementptr inbounds ({ [20 x ptr] }, ptr @_ZTV26MLRenderingWireWidthAction, i64 0, i32 0, i64 2), ptr %0, align 8
  %5 = invoke noundef ptr @_ZN7QString16fromAscii_helperEPKci(ptr noundef nonnull @.str.48, i32 noundef 10)
          to label %6 unwind label %12

6:                                                ; preds = %3
  store ptr %5, ptr %4, align 8
  invoke void @_ZN7QAction7setTextERK7QString(ptr noundef nonnull align 8 dereferenceable(16) %0, ptr noundef nonnull align 8 dereferenceable(8) %4)
          to label %7 unwind label %14

7:                                                ; preds = %6
  %8 = load ptr, ptr %4, align 8
  %9 = load atomic i32, ptr %8 monotonic, align 4
  switch i32 %9, label %_ZN9QtPrivate8RefCount5derefEv.exit.i [
    i32 0, label %_ZN9QtPrivate8RefCount5derefEv.exit.thread2.i
    i32 -1, label %_ZN7QStringD2Ev.exit
  ]

_ZN9QtPrivate8RefCount5derefEv.exit.i:            ; preds = %7
  %10 = atomicrmw sub ptr %8, i32 1 seq_cst, align 4
  %.not.i = icmp eq i32 %10, 1
  br i1 %.not.i, label %_ZN9QtPrivate8RefCount5derefEv.exit._ZN9QtPrivate8RefCount5derefEv.exit.thread2_crit_edge.i, label %_ZN7QStringD2Ev.exit

_ZN9QtPrivate8RefCount5derefEv.exit._ZN9QtPrivate8RefCount5derefEv.exit.thread2_crit_edge.i: ; preds = %_ZN9QtPrivate8RefCount5derefEv.exit.i
  %.pre.i = load ptr, ptr %4, align 8
  br label %_ZN9QtPrivate8RefCount5derefEv.exit.thread2.i

_ZN9QtPrivate8RefCount5derefEv.exit.thread2.i:    ; preds = %_ZN9QtPrivate8RefCount5derefEv.exit._ZN9QtPrivate8RefCount5derefEv.exit.thread2_crit_edge.i, %7
  %11 = phi ptr [ %.pre.i, %_ZN9QtPrivate8RefCount5derefEv.exit._ZN9QtPrivate8RefCount5derefEv.exit.thread2_crit_edge.i ], [ %8, %7 ]
  call void @_ZN10QArrayData10deallocateEPS_mm(ptr noundef %11, i64 noundef 2, i64 noundef 8) #21
  br label %_ZN7QStringD2Ev.exit

_ZN7QStringD2Ev.exit:                             ; preds = %7, %_ZN9QtPrivate8RefCount5derefEv.exit.i, %_ZN9QtPrivate8RefCount5derefEv.exit.thread2.i
  ret void

12:                                               ; preds = %3
  %13 = landingpad { ptr, i32 }
          cleanup
  br label %16

14:                                               ; preds = %6
  %15 = landingpad { ptr, i32 }
          cleanup
  call void @_ZN7QStringD2Ev(ptr noundef nonnull align 8 dereferenceable(8) %4) #21
  br label %16

16:                                               ; preds = %14, %12
  %.pn = phi { ptr, i32 } [ %15, %14 ], [ %13, %12 ]
  call void @_ZN7QActionD2Ev(ptr noundef nonnull align 8 dereferenceable(16) %0) #21
  resume { ptr, i32 } %.pn
}